; Function Attrs: nounwind uwtable
define void @Lpk_TryDec(ptr noundef readonly captures(none) %0, i32 noundef %1) local_unnamed_addr #0 {
  %3 = load i64, ptr %0, align 8, !tbaa !45
  %4 = tail call i64 @If_Dec6Perform(i64 noundef %3, i32 noundef 1) #5
  %5 = icmp ne i64 %4, 0
  %6 = zext i1 %5 to i32
  %7 = tail call i32 (ptr, ...) @printf(ptr noundef nonnull dereferenceable(1) @.str.1, i32 noundef %6)
  %8 = getelementptr inbounds nuw i8, ptr %0, i64 8
  %9 = load i64, ptr %8, align 8, !tbaa !45
  %10 = tail call i64 @If_Dec6Perform(i64 noundef %9, i32 noundef 1) #5
  %11 = icmp ne i64 %10, 0
  %12 = zext i1 %11 to i32
  %13 = tail call i32 (ptr, ...) @printf(ptr noundef nonnull dereferenceable(1) @.str.1, i32 noundef %12)
  %14 = getelementptr inbounds nuw i8, ptr %0, i64 16
  %15 = load i64, ptr %14, align 8, !tbaa !45
  %16 = tail call i64 @If_Dec6Perform(i64 noundef %15, i32 noundef 1) #5
  %17 = icmp ne i64 %16, 0
  %18 = zext i1 %17 to i32
  %19 = tail call i32 (ptr, ...) @printf(ptr noundef nonnull dereferenceable(1) @.str.1, i32 noundef %18)
  %20 = getelementptr inbounds nuw i8, ptr %0, i64 24
  %21 = load i64, ptr %20, align 8, !tbaa !45
  %22 = tail call i64 @If_Dec6Perform(i64 noundef %21, i32 noundef 1) #5
  %23 = icmp ne i64 %22, 0
  %24 = zext i1 %23 to i32
  %25 = tail call i32 (ptr, ...) @printf(ptr noundef nonnull dereferenceable(1) @.str.1, i32 noundef %24)
  %putchar = tail call i32 @putchar(i32 10)
  ret void
}